target datalayout = "e-m:e-p270:32:32-p271:32:32-p272:64:64-i64:64-i128:128-f80:128-n8:16:32:64-S128"
target triple = "x86_64-pc-linux-gnu"

%struct.AVFormatContext = type { ptr, ptr, ptr, ptr, ptr, i32, i32, ptr, i32, ptr, i32, ptr, ptr, i64, i64, i64, i32, i32, i32, i64, i64, ptr, i32, i32, ptr, i32, i32, i32, i32, ptr, i64, i32, i32, %struct.AVIOInterruptCB, i32, i32, i32, i32, i64, i32, i32, i32, i32, i32, i32, i32, i32, i32, i32, i32, i32, i64, i32, i32, i32, i32, i32, ptr, ptr, ptr, ptr, i32, ptr, ptr, ptr, ptr, i32, ptr, ptr, i64, ptr, ptr, ptr, i64 }
%struct.AVIOInterruptCB = type { ptr, ptr }
%struct.AVStream = type { ptr, i32, i32, ptr, ptr, %struct.AVRational, i64, i64, i64, i32, i32, %struct.AVRational, ptr, %struct.AVRational, %struct.AVPacket, i32, %struct.AVRational, i32 }
%struct.AVPacket = type { ptr, i64, i64, ptr, i32, i32, i32, ptr, i32, i64, i64, ptr, ptr, %struct.AVRational }
%struct.AVRational = type { i32, i32 }
%struct.AVCodecParameters = type { i32, i32, i32, ptr, i32, ptr, i32, i32, i64, i32, i32, i32, i32, i32, i32, %struct.AVRational, %struct.AVRational, i32, i32, i32, i32, i32, i32, i32, %struct.AVChannelLayout, i32, i32, i32, i32, i32, i32 }
%struct.AVChannelLayout = type { i32, i32, %union.anon, ptr }
%union.anon = type { i64 }
%struct.RTPMuxContext = type { ptr, ptr, ptr, i32, i32, ptr, i32, i32, i32, i32, i32, i32, i64, i64, i32, i32, i32, i32, ptr, ptr, i32, i32, i32, i32, i32 }

; Function Attrs: nounwind uwtable
define void @ff_rtp_send_latm(ptr noundef %0, ptr noundef %1, i32 noundef %2) #0 {
  %4 = alloca ptr, align 8
  %5 = alloca ptr, align 8
  %6 = alloca i32, align 4
  %7 = alloca ptr, align 8
  %8 = alloca i32, align 4
  %9 = alloca i32, align 4
  %10 = alloca i32, align 4
  store ptr %0, ptr %4, align 8, !tbaa !4
  store ptr %1, ptr %5, align 8, !tbaa !9
  store i32 %2, ptr %6, align 4, !tbaa !11
  call void @llvm.lifetime.start.p0(i64 8, ptr %7) #5
  %11 = load ptr, ptr %4, align 8, !tbaa !4
  %12 = getelementptr inbounds nuw %struct.AVFormatContext, ptr %11, i32 0, i32 3
  %13 = load ptr, ptr %12, align 8, !tbaa !13
  store ptr %13, ptr %7, align 8, !tbaa !28
  call void @llvm.lifetime.start.p0(i64 4, ptr %8) #5
  call void @llvm.lifetime.start.p0(i64 4, ptr %9) #5
  store i32 0, ptr %9, align 4, !tbaa !11
  call void @llvm.lifetime.start.p0(i64 4, ptr %10) #5
  store i32 0, ptr %10, align 4, !tbaa !11
  %14 = load ptr, ptr %4, align 8, !tbaa !4
  %15 = getelementptr inbounds nuw %struct.AVFormatContext, ptr %14, i32 0, i32 7
  %16 = load ptr, ptr %15, align 8, !tbaa !30
  %17 = getelementptr inbounds ptr, ptr %16, i64 0
  %18 = load ptr, ptr %17, align 8, !tbaa !31
  %19 = getelementptr inbounds nuw %struct.AVStream, ptr %18, i32 0, i32 3
  %20 = load ptr, ptr %19, align 8, !tbaa !33
  %21 = getelementptr inbounds nuw %struct.AVCodecParameters, ptr %20, i32 0, i32 4
  %22 = load i32, ptr %21, align 8, !tbaa !40
  %23 = icmp eq i32 %22, 0
  br i1 %23, label %24, label %29

24:                                               ; preds = %3
  %25 = load i32, ptr %6, align 4, !tbaa !11
  %26 = sub nsw i32 %25, 7
  store i32 %26, ptr %6, align 4, !tbaa !11
  %27 = load ptr, ptr %5, align 8, !tbaa !9
  %28 = getelementptr inbounds i8, ptr %27, i64 7
  store ptr %28, ptr %5, align 8, !tbaa !9
  br label %29

29:                                               ; preds = %24, %3
  %30 = load i32, ptr %6, align 4, !tbaa !11
  %31 = sdiv i32 %30, 255
  %32 = add nsw i32 %31, 1
  store i32 %32, ptr %8, align 4, !tbaa !11
  %33 = load ptr, ptr %7, align 8, !tbaa !28
  %34 = getelementptr inbounds nuw %struct.RTPMuxContext, ptr %33, i32 0, i32 18
  %35 = load ptr, ptr %34, align 8, !tbaa !43
  %36 = load i32, ptr %8, align 4, !tbaa !11
  %37 = sub nsw i32 %36, 1
  %38 = sext i32 %37 to i64
  call void @llvm.memset.p0.i64(ptr align 1 %35, i8 -1, i64 %38, i1 false)
  %39 = load i32, ptr %6, align 4, !tbaa !11
  %40 = srem i32 %39, 255
  %41 = trunc i32 %40 to i8
  %42 = load ptr, ptr %7, align 8, !tbaa !28
  %43 = getelementptr inbounds nuw %struct.RTPMuxContext, ptr %42, i32 0, i32 18
  %44 = load ptr, ptr %43, align 8, !tbaa !43
  %45 = load i32, ptr %8, align 4, !tbaa !11
  %46 = sub nsw i32 %45, 1
  %47 = sext i32 %46 to i64
  %48 = getelementptr inbounds i8, ptr %44, i64 %47
  store i8 %41, ptr %48, align 1, !tbaa !45
  %49 = load ptr, ptr %7, align 8, !tbaa !28
  %50 = getelementptr inbounds nuw %struct.RTPMuxContext, ptr %49, i32 0, i32 9
  %51 = load i32, ptr %50, align 4, !tbaa !46
  %52 = load ptr, ptr %7, align 8, !tbaa !28
  %53 = getelementptr inbounds nuw %struct.RTPMuxContext, ptr %52, i32 0, i32 7
  store i32 %51, ptr %53, align 4, !tbaa !47
  br label %54

54:                                               ; preds = %124, %29
  %55 = load i32, ptr %6, align 4, !tbaa !11
  %56 = icmp sgt i32 %55, 0
  br i1 %56, label %57, label %128

57:                                               ; preds = %54
  %58 = load i32, ptr %6, align 4, !tbaa !11
  %59 = load ptr, ptr %7, align 8, !tbaa !28
  %60 = getelementptr inbounds nuw %struct.RTPMuxContext, ptr %59, i32 0, i32 10
  %61 = load i32, ptr %60, align 8, !tbaa !48
  %62 = load i32, ptr %9, align 4, !tbaa !11
  %63 = icmp ne i32 %62, 0
  br i1 %63, label %66, label %64

64:                                               ; preds = %57
  %65 = load i32, ptr %8, align 4, !tbaa !11
  br label %67

66:                                               ; preds = %57
  br label %67

67:                                               ; preds = %66, %64
  %68 = phi i32 [ %65, %64 ], [ 0, %66 ]
  %69 = sub nsw i32 %61, %68
  %70 = icmp sgt i32 %58, %69
  br i1 %70, label %71, label %83

71:                                               ; preds = %67
  %72 = load ptr, ptr %7, align 8, !tbaa !28
  %73 = getelementptr inbounds nuw %struct.RTPMuxContext, ptr %72, i32 0, i32 10
  %74 = load i32, ptr %73, align 8, !tbaa !48
  %75 = load i32, ptr %9, align 4, !tbaa !11
  %76 = icmp ne i32 %75, 0
  br i1 %76, label %79, label %77

77:                                               ; preds = %71
  %78 = load i32, ptr %8, align 4, !tbaa !11
  br label %80

79:                                               ; preds = %71
  br label %80

80:                                               ; preds = %79, %77
  %81 = phi i32 [ %78, %77 ], [ 0, %79 ]
  %82 = sub nsw i32 %74, %81
  br label %85

83:                                               ; preds = %67
  %84 = load i32, ptr %6, align 4, !tbaa !11
  br label %85

85:                                               ; preds = %83, %80
  %86 = phi i32 [ %82, %80 ], [ %84, %83 ]
  store i32 %86, ptr %10, align 4, !tbaa !11
  %87 = load i32, ptr %10, align 4, !tbaa !11
  %88 = load i32, ptr %6, align 4, !tbaa !11
  %89 = sub nsw i32 %88, %87
  store i32 %89, ptr %6, align 4, !tbaa !11
  %90 = load i32, ptr %9, align 4, !tbaa !11
  %91 = icmp ne i32 %90, 0
  br i1 %91, label %113, label %92

92:                                               ; preds = %85
  %93 = load ptr, ptr %7, align 8, !tbaa !28
  %94 = getelementptr inbounds nuw %struct.RTPMuxContext, ptr %93, i32 0, i32 18
  %95 = load ptr, ptr %94, align 8, !tbaa !43
  %96 = load i32, ptr %8, align 4, !tbaa !11
  %97 = sext i32 %96 to i64
  %98 = getelementptr inbounds i8, ptr %95, i64 %97
  %99 = load ptr, ptr %5, align 8, !tbaa !9
  %100 = load i32, ptr %10, align 4, !tbaa !11
  %101 = sext i32 %100 to i64
  call void @llvm.memcpy.p0.p0.i64(ptr align 1 %98, ptr align 1 %99, i64 %101, i1 false)
  %102 = load ptr, ptr %4, align 8, !tbaa !4
  %103 = load ptr, ptr %7, align 8, !tbaa !28
  %104 = getelementptr inbounds nuw %struct.RTPMuxContext, ptr %103, i32 0, i32 18
  %105 = load ptr, ptr %104, align 8, !tbaa !43
  %106 = load i32, ptr %8, align 4, !tbaa !11
  %107 = load i32, ptr %10, align 4, !tbaa !11
  %108 = add nsw i32 %106, %107
  %109 = load i32, ptr %6, align 4, !tbaa !11
  %110 = icmp ne i32 %109, 0
  %111 = xor i1 %110, true
  %112 = zext i1 %111 to i32
  call void @ff_rtp_send_data(ptr noundef %102, ptr noundef %105, i32 noundef %108, i32 noundef %112)
  br label %124

113:                                              ; preds = %85
  %114 = load ptr, ptr %4, align 8, !tbaa !4
  %115 = load ptr, ptr %5, align 8, !tbaa !9
  %116 = load i32, ptr %9, align 4, !tbaa !11
  %117 = sext i32 %116 to i64
  %118 = getelementptr inbounds i8, ptr %115, i64 %117
  %119 = load i32, ptr %10, align 4, !tbaa !11
  %120 = load i32, ptr %6, align 4, !tbaa !11
  %121 = icmp ne i32 %120, 0
  %122 = xor i1 %121, true
  %123 = zext i1 %122 to i32
  call void @ff_rtp_send_data(ptr noundef %114, ptr noundef %118, i32 noundef %119, i32 noundef %123)
  br label %124

124:                                              ; preds = %113, %92
  %125 = load i32, ptr %10, align 4, !tbaa !11
  %126 = load i32, ptr %9, align 4, !tbaa !11
  %127 = add nsw i32 %126, %125
  store i32 %127, ptr %9, align 4, !tbaa !11
  br label %54, !llvm.loop !49

128:                                              ; preds = %54
  call void @llvm.lifetime.end.p0(i64 4, ptr %10) #5
  call void @llvm.lifetime.end.p0(i64 4, ptr %9) #5
  call void @llvm.lifetime.end.p0(i64 4, ptr %8) #5
  call void @llvm.lifetime.end.p0(i64 8, ptr %7) #5
  ret void
}

; Function Attrs: nocallback nofree nosync nounwind willreturn memory(argmem: readwrite)
declare void @llvm.lifetime.start.p0(i64 immarg, ptr captures(none)) #1

; Function Attrs: nocallback nofree nounwind willreturn memory(argmem: write)
declare void @llvm.memset.p0.i64(ptr writeonly captures(none), i8, i64, i1 immarg) #2

; Function Attrs: nocallback nofree nounwind willreturn memory(argmem: readwrite)
declare void @llvm.memcpy.p0.p0.i64(ptr noalias writeonly captures(none), ptr noalias readonly captures(none), i64, i1 immarg) #3

declare void @ff_rtp_send_data(ptr noundef, ptr noundef, i32 noundef, i32 noundef) #4

; Function Attrs: nocallback nofree nosync nounwind willreturn memory(argmem: readwrite)
declare void @llvm.lifetime.end.p0(i64 immarg, ptr captures(none)) #1


!llvm.module.flags = !{!0, !1, !2, !3}

!0 = !{i32 1, !"wchar_size", i32 4}
!1 = !{i32 8, !"PIC Level", i32 2}
!2 = !{i32 7, !"uwtable", i32 2}
!3 = !{i32 1, !"override-stack-alignment", i32 16}
!4 = !{!5, !5, i64 0}
!5 = !{!"p1 _ZTS15AVFormatContext", !6, i64 0}
!6 = !{!"any pointer", !7, i64 0}
!7 = !{!"omnipotent char", !8, i64 0}
!8 = !{!"Simple C/C++ TBAA"}
!9 = !{!10, !10, i64 0}
!10 = !{!"p1 omnipotent char", !6, i64 0}
!11 = !{!12, !12, i64 0}
!12 = !{!"int", !7, i64 0}
!13 = !{!14, !6, i64 24}
!14 = !{!"AVFormatContext", !15, i64 0, !16, i64 8, !17, i64 16, !6, i64 24, !18, i64 32, !12, i64 40, !12, i64 44, !19, i64 48, !12, i64 56, !21, i64 64, !12, i64 72, !22, i64 80, !10, i64 88, !23, i64 96, !23, i64 104, !23, i64 112, !12, i64 120, !12, i64 124, !12, i64 128, !23, i64 136, !23, i64 144, !10, i64 152, !12, i64 160, !12, i64 164, !24, i64 168, !12, i64 176, !12, i64 180, !12, i64 184, !12, i64 188, !25, i64 192, !23, i64 200, !12, i64 208, !12, i64 212, !26, i64 216, !12, i64 232, !12, i64 236, !12, i64 240, !12, i64 244, !23, i64 248, !12, i64 256, !12, i64 260, !12, i64 264, !12, i64 268, !12, i64 272, !12, i64 276, !12, i64 280, !12, i64 284, !12, i64 288, !12, i64 292, !12, i64 296, !12, i64 300, !23, i64 304, !12, i64 312, !12, i64 316, !12, i64 320, !12, i64 324, !12, i64 328, !10, i64 336, !10, i64 344, !10, i64 352, !10, i64 360, !12, i64 368, !27, i64 376, !27, i64 384, !27, i64 392, !27, i64 400, !12, i64 408, !6, i64 416, !6, i64 424, !23, i64 432, !10, i64 440, !6, i64 448, !6, i64 456, !23, i64 464}
!15 = !{!"p1 _ZTS7AVClass", !6, i64 0}
!16 = !{!"p1 _ZTS13AVInputFormat", !6, i64 0}
!17 = !{!"p1 _ZTS14AVOutputFormat", !6, i64 0}
!18 = !{!"p1 _ZTS11AVIOContext", !6, i64 0}
!19 = !{!"p2 _ZTS8AVStream", !20, i64 0}
!20 = !{!"any p2 pointer", !6, i64 0}
!21 = !{!"p2 _ZTS13AVStreamGroup", !20, i64 0}
!22 = !{!"p2 _ZTS9AVChapter", !20, i64 0}
!23 = !{!"long", !7, i64 0}
!24 = !{!"p2 _ZTS9AVProgram", !20, i64 0}
!25 = !{!"p1 _ZTS12AVDictionary", !6, i64 0}
!26 = !{!"AVIOInterruptCB", !6, i64 0, !6, i64 8}
!27 = !{!"p1 _ZTS7AVCodec", !6, i64 0}
!28 = !{!29, !29, i64 0}
!29 = !{!"p1 _ZTS13RTPMuxContext", !6, i64 0}
!30 = !{!14, !19, i64 48}
!31 = !{!32, !32, i64 0}
!32 = !{!"p1 _ZTS8AVStream", !6, i64 0}
!33 = !{!34, !35, i64 16}
!34 = !{!"AVStream", !15, i64 0, !12, i64 8, !12, i64 12, !35, i64 16, !6, i64 24, !36, i64 32, !23, i64 40, !23, i64 48, !23, i64 56, !12, i64 64, !12, i64 68, !36, i64 72, !25, i64 80, !36, i64 88, !37, i64 96, !12, i64 200, !36, i64 204, !12, i64 212}
!35 = !{!"p1 _ZTS17AVCodecParameters", !6, i64 0}
!36 = !{!"AVRational", !12, i64 0, !12, i64 4}
!37 = !{!"AVPacket", !38, i64 0, !23, i64 8, !23, i64 16, !10, i64 24, !12, i64 32, !12, i64 36, !12, i64 40, !39, i64 48, !12, i64 56, !23, i64 64, !23, i64 72, !6, i64 80, !38, i64 88, !36, i64 96}
!38 = !{!"p1 _ZTS11AVBufferRef", !6, i64 0}
!39 = !{!"p1 _ZTS16AVPacketSideData", !6, i64 0}
!40 = !{!41, !12, i64 24}
!41 = !{!"AVCodecParameters", !12, i64 0, !12, i64 4, !12, i64 8, !10, i64 16, !12, i64 24, !39, i64 32, !12, i64 40, !12, i64 44, !23, i64 48, !12, i64 56, !12, i64 60, !12, i64 64, !12, i64 68, !12, i64 72, !12, i64 76, !36, i64 80, !36, i64 88, !12, i64 96, !12, i64 100, !12, i64 104, !12, i64 108, !12, i64 112, !12, i64 116, !12, i64 120, !42, i64 128, !12, i64 152, !12, i64 156, !12, i64 160, !12, i64 164, !12, i64 168, !12, i64 172}
!42 = !{!"AVChannelLayout", !12, i64 0, !12, i64 4, !7, i64 8, !6, i64 16}
!43 = !{!44, !10, i64 96}
!44 = !{!"RTPMuxContext", !15, i64 0, !5, i64 8, !32, i64 16, !12, i64 24, !12, i64 28, !10, i64 32, !12, i64 40, !12, i64 44, !12, i64 48, !12, i64 52, !12, i64 56, !12, i64 60, !23, i64 64, !23, i64 72, !12, i64 80, !12, i64 84, !12, i64 88, !12, i64 92, !10, i64 96, !10, i64 104, !12, i64 112, !12, i64 116, !12, i64 120, !12, i64 124, !12, i64 128}
!45 = !{!7, !7, i64 0}
!46 = !{!44, !12, i64 52}
!47 = !{!44, !12, i64 44}
!48 = !{!44, !12, i64 56}
!49 = distinct !{!49, !50}
!50 = !{!"llvm.loop.mustprogress"}
